target datalayout = "e-m:e-p270:32:32-p271:32:32-p272:64:64-i64:64-i128:128-f80:128-n8:16:32:64-S128"
target triple = "x86_64-pc-linux-gnu"

%struct.SwsMatrix3x3 = type { [3 x [3 x float]] }

; Function Attrs: nounwind uwtable
define void @ff_sws_matrix3x3_invert(ptr noundef %0) #0 {
  %2 = alloca ptr, align 8
  %3 = alloca double, align 8
  %4 = alloca double, align 8
  %5 = alloca double, align 8
  %6 = alloca double, align 8
  %7 = alloca double, align 8
  %8 = alloca double, align 8
  %9 = alloca double, align 8
  %10 = alloca double, align 8
  %11 = alloca double, align 8
  %12 = alloca double, align 8
  %13 = alloca double, align 8
  %14 = alloca double, align 8
  %15 = alloca double, align 8
  %16 = alloca double, align 8
  %17 = alloca double, align 8
  %18 = alloca double, align 8
  %19 = alloca double, align 8
  %20 = alloca double, align 8
  %21 = alloca double, align 8
  store ptr %0, ptr %2, align 8, !tbaa !4
  call void @llvm.lifetime.start.p0(i64 8, ptr %3) #7
  %22 = load ptr, ptr %2, align 8, !tbaa !4
  %23 = getelementptr inbounds nuw %struct.SwsMatrix3x3, ptr %22, i32 0, i32 0
  %24 = getelementptr inbounds [3 x [3 x float]], ptr %23, i64 0, i64 0
  %25 = getelementptr inbounds [3 x float], ptr %24, i64 0, i64 0
  %26 = load float, ptr %25, align 4, !tbaa !9
  %27 = fpext nsz float %26 to double
  store double %27, ptr %3, align 8, !tbaa !15
  call void @llvm.lifetime.start.p0(i64 8, ptr %4) #7
  %28 = load ptr, ptr %2, align 8, !tbaa !4
  %29 = getelementptr inbounds nuw %struct.SwsMatrix3x3, ptr %28, i32 0, i32 0
  %30 = getelementptr inbounds [3 x [3 x float]], ptr %29, i64 0, i64 0
  %31 = getelementptr inbounds [3 x float], ptr %30, i64 0, i64 1
  %32 = load float, ptr %31, align 4, !tbaa !9
  %33 = fpext nsz float %32 to double
  store double %33, ptr %4, align 8, !tbaa !15
  call void @llvm.lifetime.start.p0(i64 8, ptr %5) #7
  %34 = load ptr, ptr %2, align 8, !tbaa !4
  %35 = getelementptr inbounds nuw %struct.SwsMatrix3x3, ptr %34, i32 0, i32 0
  %36 = getelementptr inbounds [3 x [3 x float]], ptr %35, i64 0, i64 0
  %37 = getelementptr inbounds [3 x float], ptr %36, i64 0, i64 2
  %38 = load float, ptr %37, align 4, !tbaa !9
  %39 = fpext nsz float %38 to double
  store double %39, ptr %5, align 8, !tbaa !15
  call void @llvm.lifetime.start.p0(i64 8, ptr %6) #7
  %40 = load ptr, ptr %2, align 8, !tbaa !4
  %41 = getelementptr inbounds nuw %struct.SwsMatrix3x3, ptr %40, i32 0, i32 0
  %42 = getelementptr inbounds [3 x [3 x float]], ptr %41, i64 0, i64 1
  %43 = getelementptr inbounds [3 x float], ptr %42, i64 0, i64 0
  %44 = load float, ptr %43, align 4, !tbaa !9
  %45 = fpext nsz float %44 to double
  store double %45, ptr %6, align 8, !tbaa !15
  call void @llvm.lifetime.start.p0(i64 8, ptr %7) #7
  %46 = load ptr, ptr %2, align 8, !tbaa !4
  %47 = getelementptr inbounds nuw %struct.SwsMatrix3x3, ptr %46, i32 0, i32 0
  %48 = getelementptr inbounds [3 x [3 x float]], ptr %47, i64 0, i64 1
  %49 = getelementptr inbounds [3 x float], ptr %48, i64 0, i64 1
  %50 = load float, ptr %49, align 4, !tbaa !9
  %51 = fpext nsz float %50 to double
  store double %51, ptr %7, align 8, !tbaa !15
  call void @llvm.lifetime.start.p0(i64 8, ptr %8) #7
  %52 = load ptr, ptr %2, align 8, !tbaa !4
  %53 = getelementptr inbounds nuw %struct.SwsMatrix3x3, ptr %52, i32 0, i32 0
  %54 = getelementptr inbounds [3 x [3 x float]], ptr %53, i64 0, i64 1
  %55 = getelementptr inbounds [3 x float], ptr %54, i64 0, i64 2
  %56 = load float, ptr %55, align 4, !tbaa !9
  %57 = fpext nsz float %56 to double
  store double %57, ptr %8, align 8, !tbaa !15
  call void @llvm.lifetime.start.p0(i64 8, ptr %9) #7
  %58 = load ptr, ptr %2, align 8, !tbaa !4
  %59 = getelementptr inbounds nuw %struct.SwsMatrix3x3, ptr %58, i32 0, i32 0
  %60 = getelementptr inbounds [3 x [3 x float]], ptr %59, i64 0, i64 2
  %61 = getelementptr inbounds [3 x float], ptr %60, i64 0, i64 0
  %62 = load float, ptr %61, align 4, !tbaa !9
  %63 = fpext nsz float %62 to double
  store double %63, ptr %9, align 8, !tbaa !15
  call void @llvm.lifetime.start.p0(i64 8, ptr %10) #7
  %64 = load ptr, ptr %2, align 8, !tbaa !4
  %65 = getelementptr inbounds nuw %struct.SwsMatrix3x3, ptr %64, i32 0, i32 0
  %66 = getelementptr inbounds [3 x [3 x float]], ptr %65, i64 0, i64 2
  %67 = getelementptr inbounds [3 x float], ptr %66, i64 0, i64 1
  %68 = load float, ptr %67, align 4, !tbaa !9
  %69 = fpext nsz float %68 to double
  store double %69, ptr %10, align 8, !tbaa !15
  call void @llvm.lifetime.start.p0(i64 8, ptr %11) #7
  %70 = load ptr, ptr %2, align 8, !tbaa !4
  %71 = getelementptr inbounds nuw %struct.SwsMatrix3x3, ptr %70, i32 0, i32 0
  %72 = getelementptr inbounds [3 x [3 x float]], ptr %71, i64 0, i64 2
  %73 = getelementptr inbounds [3 x float], ptr %72, i64 0, i64 2
  %74 = load float, ptr %73, align 4, !tbaa !9
  %75 = fpext nsz float %74 to double
  store double %75, ptr %11, align 8, !tbaa !15
  call void @llvm.lifetime.start.p0(i64 8, ptr %12) #7
  %76 = load double, ptr %7, align 8, !tbaa !15
  %77 = load double, ptr %11, align 8, !tbaa !15
  %78 = load double, ptr %10, align 8, !tbaa !15
  %79 = load double, ptr %8, align 8, !tbaa !15
  %80 = fmul nsz double %78, %79
  %81 = fneg nsz double %80
  %82 = call nsz double @llvm.fmuladd.f64(double %76, double %77, double %81)
  store double %82, ptr %12, align 8, !tbaa !15
  call void @llvm.lifetime.start.p0(i64 8, ptr %13) #7
  %83 = load double, ptr %4, align 8, !tbaa !15
  %84 = load double, ptr %11, align 8, !tbaa !15
  %85 = load double, ptr %10, align 8, !tbaa !15
  %86 = load double, ptr %5, align 8, !tbaa !15
  %87 = fmul nsz double %85, %86
  %88 = fneg nsz double %87
  %89 = call nsz double @llvm.fmuladd.f64(double %83, double %84, double %88)
  %90 = fneg nsz double %89
  store double %90, ptr %13, align 8, !tbaa !15
  call void @llvm.lifetime.start.p0(i64 8, ptr %14) #7
  %91 = load double, ptr %4, align 8, !tbaa !15
  %92 = load double, ptr %8, align 8, !tbaa !15
  %93 = load double, ptr %7, align 8, !tbaa !15
  %94 = load double, ptr %5, align 8, !tbaa !15
  %95 = fmul nsz double %93, %94
  %96 = fneg nsz double %95
  %97 = call nsz double @llvm.fmuladd.f64(double %91, double %92, double %96)
  store double %97, ptr %14, align 8, !tbaa !15
  call void @llvm.lifetime.start.p0(i64 8, ptr %15) #7
  %98 = load double, ptr %6, align 8, !tbaa !15
  %99 = load double, ptr %11, align 8, !tbaa !15
  %100 = load double, ptr %9, align 8, !tbaa !15
  %101 = load double, ptr %8, align 8, !tbaa !15
  %102 = fmul nsz double %100, %101
  %103 = fneg nsz double %102
  %104 = call nsz double @llvm.fmuladd.f64(double %98, double %99, double %103)
  %105 = fneg nsz double %104
  store double %105, ptr %15, align 8, !tbaa !15
  call void @llvm.lifetime.start.p0(i64 8, ptr %16) #7
  %106 = load double, ptr %3, align 8, !tbaa !15
  %107 = load double, ptr %11, align 8, !tbaa !15
  %108 = load double, ptr %9, align 8, !tbaa !15
  %109 = load double, ptr %5, align 8, !tbaa !15
  %110 = fmul nsz double %108, %109
  %111 = fneg nsz double %110
  %112 = call nsz double @llvm.fmuladd.f64(double %106, double %107, double %111)
  store double %112, ptr %16, align 8, !tbaa !15
  call void @llvm.lifetime.start.p0(i64 8, ptr %17) #7
  %113 = load double, ptr %3, align 8, !tbaa !15
  %114 = load double, ptr %8, align 8, !tbaa !15
  %115 = load double, ptr %6, align 8, !tbaa !15
  %116 = load double, ptr %5, align 8, !tbaa !15
  %117 = fmul nsz double %115, %116
  %118 = fneg nsz double %117
  %119 = call nsz double @llvm.fmuladd.f64(double %113, double %114, double %118)
  %120 = fneg nsz double %119
  store double %120, ptr %17, align 8, !tbaa !15
  call void @llvm.lifetime.start.p0(i64 8, ptr %18) #7
  %121 = load double, ptr %6, align 8, !tbaa !15
  %122 = load double, ptr %10, align 8, !tbaa !15
  %123 = load double, ptr %9, align 8, !tbaa !15
  %124 = load double, ptr %7, align 8, !tbaa !15
  %125 = fmul nsz double %123, %124
  %126 = fneg nsz double %125
  %127 = call nsz double @llvm.fmuladd.f64(double %121, double %122, double %126)
  store double %127, ptr %18, align 8, !tbaa !15
  call void @llvm.lifetime.start.p0(i64 8, ptr %19) #7
  %128 = load double, ptr %3, align 8, !tbaa !15
  %129 = load double, ptr %10, align 8, !tbaa !15
  %130 = load double, ptr %9, align 8, !tbaa !15
  %131 = load double, ptr %4, align 8, !tbaa !15
  %132 = fmul nsz double %130, %131
  %133 = fneg nsz double %132
  %134 = call nsz double @llvm.fmuladd.f64(double %128, double %129, double %133)
  %135 = fneg nsz double %134
  store double %135, ptr %19, align 8, !tbaa !15
  call void @llvm.lifetime.start.p0(i64 8, ptr %20) #7
  %136 = load double, ptr %3, align 8, !tbaa !15
  %137 = load double, ptr %7, align 8, !tbaa !15
  %138 = load double, ptr %6, align 8, !tbaa !15
  %139 = load double, ptr %4, align 8, !tbaa !15
  %140 = fmul nsz double %138, %139
  %141 = fneg nsz double %140
  %142 = call nsz double @llvm.fmuladd.f64(double %136, double %137, double %141)
  store double %142, ptr %20, align 8, !tbaa !15
  call void @llvm.lifetime.start.p0(i64 8, ptr %21) #7
  %143 = load double, ptr %3, align 8, !tbaa !15
  %144 = load double, ptr %12, align 8, !tbaa !15
  %145 = load double, ptr %6, align 8, !tbaa !15
  %146 = load double, ptr %13, align 8, !tbaa !15
  %147 = fmul nsz double %145, %146
  %148 = call nsz double @llvm.fmuladd.f64(double %143, double %144, double %147)
  %149 = load double, ptr %9, align 8, !tbaa !15
  %150 = load double, ptr %14, align 8, !tbaa !15
  %151 = call nsz double @llvm.fmuladd.f64(double %149, double %150, double %148)
  store double %151, ptr %21, align 8, !tbaa !15
  %152 = load double, ptr %21, align 8, !tbaa !15
  %153 = fdiv nsz double 1.000000e+00, %152
  store double %153, ptr %21, align 8, !tbaa !15
  %154 = load double, ptr %21, align 8, !tbaa !15
  %155 = load double, ptr %12, align 8, !tbaa !15
  %156 = fmul nsz double %154, %155
  %157 = fptrunc nsz double %156 to float
  %158 = load ptr, ptr %2, align 8, !tbaa !4
  %159 = getelementptr inbounds nuw %struct.SwsMatrix3x3, ptr %158, i32 0, i32 0
  %160 = getelementptr inbounds [3 x [3 x float]], ptr %159, i64 0, i64 0
  %161 = getelementptr inbounds [3 x float], ptr %160, i64 0, i64 0
  store float %157, ptr %161, align 4, !tbaa !9
  %162 = load double, ptr %21, align 8, !tbaa !15
  %163 = load double, ptr %13, align 8, !tbaa !15
  %164 = fmul nsz double %162, %163
  %165 = fptrunc nsz double %164 to float
  %166 = load ptr, ptr %2, align 8, !tbaa !4
  %167 = getelementptr inbounds nuw %struct.SwsMatrix3x3, ptr %166, i32 0, i32 0
  %168 = getelementptr inbounds [3 x [3 x float]], ptr %167, i64 0, i64 0
  %169 = getelementptr inbounds [3 x float], ptr %168, i64 0, i64 1
  store float %165, ptr %169, align 4, !tbaa !9
  %170 = load double, ptr %21, align 8, !tbaa !15
  %171 = load double, ptr %14, align 8, !tbaa !15
  %172 = fmul nsz double %170, %171
  %173 = fptrunc nsz double %172 to float
  %174 = load ptr, ptr %2, align 8, !tbaa !4
  %175 = getelementptr inbounds nuw %struct.SwsMatrix3x3, ptr %174, i32 0, i32 0
  %176 = getelementptr inbounds [3 x [3 x float]], ptr %175, i64 0, i64 0
  %177 = getelementptr inbounds [3 x float], ptr %176, i64 0, i64 2
  store float %173, ptr %177, align 4, !tbaa !9
  %178 = load double, ptr %21, align 8, !tbaa !15
  %179 = load double, ptr %15, align 8, !tbaa !15
  %180 = fmul nsz double %178, %179
  %181 = fptrunc nsz double %180 to float
  %182 = load ptr, ptr %2, align 8, !tbaa !4
  %183 = getelementptr inbounds nuw %struct.SwsMatrix3x3, ptr %182, i32 0, i32 0
  %184 = getelementptr inbounds [3 x [3 x float]], ptr %183, i64 0, i64 1
  %185 = getelementptr inbounds [3 x float], ptr %184, i64 0, i64 0
  store float %181, ptr %185, align 4, !tbaa !9
  %186 = load double, ptr %21, align 8, !tbaa !15
  %187 = load double, ptr %16, align 8, !tbaa !15
  %188 = fmul nsz double %186, %187
  %189 = fptrunc nsz double %188 to float
  %190 = load ptr, ptr %2, align 8, !tbaa !4
  %191 = getelementptr inbounds nuw %struct.SwsMatrix3x3, ptr %190, i32 0, i32 0
  %192 = getelementptr inbounds [3 x [3 x float]], ptr %191, i64 0, i64 1
  %193 = getelementptr inbounds [3 x float], ptr %192, i64 0, i64 1
  store float %189, ptr %193, align 4, !tbaa !9
  %194 = load double, ptr %21, align 8, !tbaa !15
  %195 = load double, ptr %17, align 8, !tbaa !15
  %196 = fmul nsz double %194, %195
  %197 = fptrunc nsz double %196 to float
  %198 = load ptr, ptr %2, align 8, !tbaa !4
  %199 = getelementptr inbounds nuw %struct.SwsMatrix3x3, ptr %198, i32 0, i32 0
  %200 = getelementptr inbounds [3 x [3 x float]], ptr %199, i64 0, i64 1
  %201 = getelementptr inbounds [3 x float], ptr %200, i64 0, i64 2
  store float %197, ptr %201, align 4, !tbaa !9
  %202 = load double, ptr %21, align 8, !tbaa !15
  %203 = load double, ptr %18, align 8, !tbaa !15
  %204 = fmul nsz double %202, %203
  %205 = fptrunc nsz double %204 to float
  %206 = load ptr, ptr %2, align 8, !tbaa !4
  %207 = getelementptr inbounds nuw %struct.SwsMatrix3x3, ptr %206, i32 0, i32 0
  %208 = getelementptr inbounds [3 x [3 x float]], ptr %207, i64 0, i64 2
  %209 = getelementptr inbounds [3 x float], ptr %208, i64 0, i64 0
  store float %205, ptr %209, align 4, !tbaa !9
  %210 = load double, ptr %21, align 8, !tbaa !15
  %211 = load double, ptr %19, align 8, !tbaa !15
  %212 = fmul nsz double %210, %211
  %213 = fptrunc nsz double %212 to float
  %214 = load ptr, ptr %2, align 8, !tbaa !4
  %215 = getelementptr inbounds nuw %struct.SwsMatrix3x3, ptr %214, i32 0, i32 0
  %216 = getelementptr inbounds [3 x [3 x float]], ptr %215, i64 0, i64 2
  %217 = getelementptr inbounds [3 x float], ptr %216, i64 0, i64 1
  store float %213, ptr %217, align 4, !tbaa !9
  %218 = load double, ptr %21, align 8, !tbaa !15
  %219 = load double, ptr %20, align 8, !tbaa !15
  %220 = fmul nsz double %218, %219
  %221 = fptrunc nsz double %220 to float
  %222 = load ptr, ptr %2, align 8, !tbaa !4
  %223 = getelementptr inbounds nuw %struct.SwsMatrix3x3, ptr %222, i32 0, i32 0
  %224 = getelementptr inbounds [3 x [3 x float]], ptr %223, i64 0, i64 2
  %225 = getelementptr inbounds [3 x float], ptr %224, i64 0, i64 2
  store float %221, ptr %225, align 4, !tbaa !9
  call void @llvm.lifetime.end.p0(i64 8, ptr %21) #7
  call void @llvm.lifetime.end.p0(i64 8, ptr %20) #7
  call void @llvm.lifetime.end.p0(i64 8, ptr %19) #7
  call void @llvm.lifetime.end.p0(i64 8, ptr %18) #7
  call void @llvm.lifetime.end.p0(i64 8, ptr %17) #7
  call void @llvm.lifetime.end.p0(i64 8, ptr %16) #7
  call void @llvm.lifetime.end.p0(i64 8, ptr %15) #7
  call void @llvm.lifetime.end.p0(i64 8, ptr %14) #7
  call void @llvm.lifetime.end.p0(i64 8, ptr %13) #7
  call void @llvm.lifetime.end.p0(i64 8, ptr %12) #7
  call void @llvm.lifetime.end.p0(i64 8, ptr %11) #7
  call void @llvm.lifetime.end.p0(i64 8, ptr %10) #7
  call void @llvm.lifetime.end.p0(i64 8, ptr %9) #7
  call void @llvm.lifetime.end.p0(i64 8, ptr %8) #7
  call void @llvm.lifetime.end.p0(i64 8, ptr %7) #7
  call void @llvm.lifetime.end.p0(i64 8, ptr %6) #7
  call void @llvm.lifetime.end.p0(i64 8, ptr %5) #7
  call void @llvm.lifetime.end.p0(i64 8, ptr %4) #7
  call void @llvm.lifetime.end.p0(i64 8, ptr %3) #7
  ret void
}

; Function Attrs: nounwind uwtable
define void @ff_sws_xyz2rgb(ptr dead_on_unwind noalias writable sret(%struct.SwsMatrix3x3) align 4 %0, ptr noundef %1) #0 {
  %3 = alloca ptr, align 8
  store ptr %1, ptr %3, align 8, !tbaa !20
  %4 = load ptr, ptr %3, align 8, !tbaa !20
  call void @ff_sws_rgb2xyz(ptr dead_on_unwind writable sret(%struct.SwsMatrix3x3) align 4 %0, ptr noundef %4)
  call void @ff_sws_matrix3x3_invert(ptr noundef %0)
  ret void
}