; Function Attrs: nofree nosync nounwind memory(argmem: readwrite) uwtable
define void @ff_sws_xyz2rgb(ptr dead_on_unwind noalias writable sret(%struct.SwsMatrix3x3) align 4 captures(none) initializes((0, 36)) %0, ptr noundef readonly captures(none) %1) local_unnamed_addr #4 {
  tail call void @ff_sws_rgb2xyz(ptr dead_on_unwind writable sret(%struct.SwsMatrix3x3) align 4 %0, ptr noundef %1)
  %3 = load float, ptr %0, align 4, !tbaa !4
  %4 = fpext nsz float %3 to double
  %5 = getelementptr inbounds nuw i8, ptr %0, i64 4
  %6 = load float, ptr %5, align 4, !tbaa !4
  %7 = fpext nsz float %6 to double
  %8 = getelementptr inbounds nuw i8, ptr %0, i64 8
  %9 = load float, ptr %8, align 4, !tbaa !4
  %10 = fpext nsz float %9 to double
  %11 = getelementptr inbounds nuw i8, ptr %0, i64 12
  %12 = load float, ptr %11, align 4, !tbaa !4
  %13 = fpext nsz float %12 to double
  %14 = getelementptr inbounds nuw i8, ptr %0, i64 16
  %15 = load float, ptr %14, align 4, !tbaa !4
  %16 = fpext nsz float %15 to double
  %17 = getelementptr inbounds nuw i8, ptr %0, i64 20
  %18 = load float, ptr %17, align 4, !tbaa !4
  %19 = fpext nsz float %18 to double
  %20 = getelementptr inbounds nuw i8, ptr %0, i64 24
  %21 = load float, ptr %20, align 4, !tbaa !4
  %22 = fpext nsz float %21 to double
  %23 = getelementptr inbounds nuw i8, ptr %0, i64 28
  %24 = load float, ptr %23, align 4, !tbaa !4
  %25 = fpext nsz float %24 to double
  %26 = getelementptr inbounds nuw i8, ptr %0, i64 32
  %27 = load float, ptr %26, align 4, !tbaa !4
  %28 = fpext nsz float %27 to double
  %29 = fneg nsz double %19
  %30 = fmul nsz double %29, %25
  %31 = tail call nsz double @llvm.fmuladd.f64(double %16, double %28, double %30)
  %32 = fneg nsz double %10
  %33 = fmul nsz double %32, %25
  %34 = tail call nsz double @llvm.fmuladd.f64(double %7, double %28, double %33)
  %35 = fneg nsz double %34
  %36 = fmul nsz double %32, %16
  %37 = tail call nsz double @llvm.fmuladd.f64(double %7, double %19, double %36)
  %38 = fmul nsz double %29, %22
  %39 = tail call nsz double @llvm.fmuladd.f64(double %13, double %28, double %38)
  %40 = fneg nsz double %39
  %41 = fmul nsz double %32, %22
  %42 = tail call nsz double @llvm.fmuladd.f64(double %4, double %28, double %41)
  %43 = fmul nsz double %32, %13
  %44 = tail call nsz double @llvm.fmuladd.f64(double %4, double %19, double %43)
  %45 = fneg nsz double %44
  %46 = fneg nsz double %16
  %47 = fmul nsz double %46, %22
  %48 = tail call nsz double @llvm.fmuladd.f64(double %13, double %25, double %47)
  %49 = fneg nsz double %7
  %50 = fmul nsz double %49, %22
  %51 = tail call nsz double @llvm.fmuladd.f64(double %4, double %25, double %50)
  %52 = fneg nsz double %51
  %53 = fmul nsz double %49, %13
  %54 = tail call nsz double @llvm.fmuladd.f64(double %4, double %16, double %53)
  %55 = fmul nsz double %13, %35
  %56 = tail call nsz double @llvm.fmuladd.f64(double %4, double %31, double %55)
  %57 = tail call nsz double @llvm.fmuladd.f64(double %22, double %37, double %56)
  %58 = fdiv nsz double 1.000000e+00, %57
  %59 = fmul nsz double %31, %58
  %60 = fptrunc nsz double %59 to float
  store float %60, ptr %0, align 4, !tbaa !4
  %61 = fmul nsz double %58, %35
  %62 = fptrunc nsz double %61 to float
  store float %62, ptr %5, align 4, !tbaa !4
  %63 = fmul nsz double %37, %58
  %64 = fptrunc nsz double %63 to float
  store float %64, ptr %8, align 4, !tbaa !4
  %65 = fmul nsz double %58, %40
  %66 = fptrunc nsz double %65 to float
  store float %66, ptr %11, align 4, !tbaa !4
  %67 = fmul nsz double %42, %58
  %68 = fptrunc nsz double %67 to float
  store float %68, ptr %14, align 4, !tbaa !4
  %69 = fmul nsz double %58, %45
  %70 = fptrunc nsz double %69 to float
  store float %70, ptr %17, align 4, !tbaa !4
  %71 = fmul nsz double %48, %58
  %72 = fptrunc nsz double %71 to float
  store float %72, ptr %20, align 4, !tbaa !4
  %73 = fmul nsz double %58, %52
  %74 = fptrunc nsz double %73 to float
  store float %74, ptr %23, align 4, !tbaa !4
  %75 = fmul nsz double %54, %58
  %76 = fptrunc nsz double %75 to float
  store float %76, ptr %26, align 4, !tbaa !4
  ret void
}